target datalayout = "e-m:e-p270:32:32-p271:32:32-p272:64:64-i64:64-i128:128-f80:128-n8:16:32:64-S128"
target triple = "x86_64-pc-linux-gnu"

%struct.Curl_easy = type { i32, i64, i64, ptr, %struct.Curl_llist_node, %struct.Curl_llist_node, i32, i32, %struct.Curl_message, %struct.easy_pollset, %struct.Names, ptr, ptr, ptr, ptr, %struct.SingleRequest, %struct.UserDefined, ptr, ptr, ptr, %struct.Progress, %struct.UrlState, ptr, %struct.PureInfo, %struct.curl_tlssessioninfo }
%struct.Curl_llist_node = type { ptr, ptr, ptr, ptr }
%struct.Curl_message = type { %struct.Curl_llist_node, %struct.CURLMsg }
%struct.CURLMsg = type { i32, ptr, %union.anon }
%union.anon = type { ptr }
%struct.easy_pollset = type { [5 x i32], i32, [5 x i8] }
%struct.Names = type { ptr, i32 }
%struct.SingleRequest = type <{ i64, i64, i64, i64, %struct.curltime, i32, i32, i32, i32, i64, i32, i32, i8, i8, [2 x i8], i32, ptr, ptr, %struct.bufq, i64, i64, ptr, ptr, %union.anon.0, ptr, i8, i32, [3 x i8] }>
%struct.curltime = type { i64, i32 }
%struct.bufq = type { ptr, ptr, ptr, ptr, i64, i64, i64, i32 }
%union.anon.0 = type { ptr }
%struct.UserDefined = type <{ ptr, ptr, ptr, ptr, ptr, ptr, i64, i64, i64, ptr, ptr, i64, ptr, ptr, ptr, ptr, ptr, ptr, ptr, ptr, ptr, ptr, ptr, ptr, ptr, ptr, ptr, ptr, ptr, ptr, ptr, ptr, ptr, ptr, ptr, i64, i64, i64, i64, i64, i64, i64, i64, i64, ptr, ptr, %struct.curl_mimepart, ptr, ptr, ptr, i64, %struct.ssl_config_data, %struct.ssl_config_data, ptr, i16, i8, i8, %struct.ssl_general_config, i32, i32, i32, [4 x i8], ptr, ptr, i64, i32, i8, i8, i8, i8, ptr, ptr, ptr, i32, [4 x i8], [74 x ptr], [8 x ptr], i32, i32, i32, [4 x i8], ptr, i32, [4 x i8], ptr, ptr, ptr, ptr, ptr, i32, i32, i32, i32, i32, i32, i32, i32, i64, ptr, ptr, i64, ptr, i64, ptr, ptr, ptr, ptr, i32, i16, i16, i16, i8, i8, i8, i8, i8, i8, i8, i8, i64, [6 x i8] }>
%struct.curl_mimepart = type { ptr, ptr, i32, i32, ptr, ptr, ptr, ptr, ptr, ptr, ptr, ptr, ptr, ptr, ptr, i64, %struct.mime_state, ptr, %struct.mime_encoder_state, i64 }
%struct.mime_state = type { i32, ptr, i64 }
%struct.mime_encoder_state = type { i64, i64, i64, [256 x i8] }
%struct.ssl_config_data = type { %struct.ssl_primary_config, i64, ptr, ptr, ptr, ptr, ptr, ptr, ptr, i16 }
%struct.ssl_primary_config = type { ptr, ptr, ptr, ptr, ptr, ptr, ptr, ptr, ptr, ptr, ptr, ptr, ptr, ptr, i8, i32, i8, i8 }
%struct.ssl_general_config = type { i32 }
%struct.Progress = type { i64, %struct.pgrs_dir, %struct.pgrs_dir, i64, i64, i32, i32, i64, i64, i64, i64, i64, i64, i64, i64, i64, %struct.curltime, %struct.curltime, %struct.curltime, %struct.curltime, %struct.curltime, [6 x i64], [6 x %struct.curltime], i32, i8 }
%struct.pgrs_dir = type { i64, i64, i64, %struct.pgrs_measure }
%struct.pgrs_measure = type { %struct.curltime, i64 }
%struct.UrlState = type { %struct.curltime, i64, i64, %struct.dynbuf, ptr, i64, ptr, i32, i32, i32, ptr, i32, i64, i32, ptr, %struct.digestdata, %struct.digestdata, %struct.auth, %struct.auth, %struct.Curl_async, ptr, i8, %struct.curltime, %struct.Curl_tree, %struct.Curl_llist, [15 x %struct.time_node], ptr, ptr, i64, i64, i64, i64, [32 x i8], i64, ptr, ptr, ptr, %struct.urlpieces, ptr, ptr, ptr, ptr, ptr, i64, %struct.dynbuf, %struct.Curl_llist, [2 x %struct.curl_header], ptr, i32, ptr, ptr, %struct.store_netrc, %struct.dynamically_allocated_data, i8, i8, i8, i8, i32 }
%struct.digestdata = type { ptr, ptr, ptr, ptr, ptr, ptr, i32, i8, i8 }
%struct.auth = type { i64, i64, i64, i8 }
%struct.Curl_async = type { ptr, ptr, ptr, ptr, i32, i32, i8 }
%struct.Curl_tree = type { ptr, ptr, ptr, ptr, %struct.curltime, ptr }
%struct.time_node = type { %struct.Curl_llist_node, %struct.curltime, i32 }
%struct.urlpieces = type { ptr, ptr, ptr, ptr, ptr, ptr, ptr, ptr }
%struct.dynbuf = type { ptr, i64, i64, i64 }
%struct.Curl_llist = type { ptr, ptr, ptr, i64 }
%struct.curl_header = type { ptr, ptr, i64, i64, i32, ptr }
%struct.store_netrc = type { %struct.dynbuf, ptr, i8 }
%struct.dynamically_allocated_data = type { ptr, ptr, ptr, ptr, ptr, ptr, ptr, ptr, ptr, ptr, ptr, ptr, ptr, ptr }
%struct.PureInfo = type { i32, i32, i32, i64, i64, i64, i64, i64, i64, i64, ptr, ptr, i64, i32, %struct.ip_quadruple, i32, ptr, i32, %struct.curl_certinfo, i32, i8 }
%struct.ip_quadruple = type { [46 x i8], [46 x i8], i32, i32 }
%struct.curl_certinfo = type { i32, ptr }
%struct.curl_tlssessioninfo = type { i32, ptr }
%struct.connectdata = type { %struct.Curl_llist_node, ptr, ptr, i64, ptr, i64, ptr, ptr, %struct.hostname, ptr, ptr, %struct.hostname, %struct.proxy_info, %struct.proxy_info, %struct.ip_quadruple, %struct.ip_quadruple, ptr, ptr, ptr, ptr, ptr, %struct.curltime, %struct.curltime, %struct.curltime, [2 x i32], [2 x ptr], [2 x ptr], [2 x ptr], %struct.anon, %struct.easy_pollset, %struct.ssl_primary_config, %struct.ssl_primary_config, %struct.ConnectBits, ptr, ptr, %struct.curltime, i32, i32, %struct.Curl_llist, i32, i32, %struct.ntlmdata, %struct.ntlmdata, %union.anon.1, ptr, ptr, i16, i32, i32, i32, i32, i16, i16, i8, i8, i8, i8, i8, i8, i8 }
%struct.hostname = type { ptr, ptr, ptr, ptr }
%struct.proxy_info = type { %struct.hostname, i32, i8, ptr, ptr }
%struct.anon = type { [2 x %struct.curltime], i32 }
%struct.ConnectBits = type { i64 }
%struct.ntlmdata = type { i32, [8 x i8], i32, ptr }
%union.anon.1 = type { %struct.ftp_conn }
%struct.ftp_conn = type { %struct.pingpong, ptr, ptr, ptr, ptr, ptr, ptr, ptr, i8, i64, ptr, i64, i32, i32, i32, i32, i32, i16, i8, i8, i8, i8, i8 }
%struct.pingpong = type { i64, i8, ptr, i64, i64, %struct.curltime, i64, %struct.dynbuf, %struct.dynbuf, i64, i64, ptr, ptr }
%struct.rtsp_conn = type { %struct.dynbuf, i32, i64, i32, i8 }
%struct.RTSP = type { i64, i64 }
%struct.curl_trc_feat = type { ptr, i32 }

@.str.7 = private unnamed_addr constant [60 x i8] c"The CSeq of this request %ld did not match the response %ld\00", align 1
@.str.8 = private unnamed_addr constant [38 x i8] c"Got an RTP Receive with a CSeq of %ld\00", align 1
@.str.9 = private unnamed_addr constant [47 x i8] c"Server prematurely closed the RTSP connection.\00", align 1

; Function Attrs: nounwind uwtable
define internal i32 @rtsp_done(ptr noundef %0, i32 noundef %1, i1 noundef zeroext %2) #0 {
  %4 = alloca i32, align 4
  %5 = alloca ptr, align 8
  %6 = alloca i32, align 4
  %7 = alloca i8, align 1
  %8 = alloca ptr, align 8
  %9 = alloca i32, align 4
  %10 = alloca i64, align 8
  %11 = alloca i64, align 8
  %12 = alloca i32, align 4
  store ptr %0, ptr %5, align 8, !tbaa !3
  store i32 %1, ptr %6, align 4, !tbaa !84
  %13 = zext i1 %2 to i8
  store i8 %13, ptr %7, align 1, !tbaa !87
  call void @llvm.lifetime.start.p0(i64 8, ptr %8) #5
  %14 = load ptr, ptr %5, align 8, !tbaa !3
  %15 = getelementptr inbounds nuw %struct.Curl_easy, ptr %14, i32 0, i32 15
  %16 = getelementptr inbounds nuw %struct.SingleRequest, ptr %15, i32 0, i32 23
  %17 = load ptr, ptr %16, align 8, !tbaa !13
  store ptr %17, ptr %8, align 8, !tbaa !11
  call void @llvm.lifetime.start.p0(i64 4, ptr %9) #5
  %18 = load ptr, ptr %5, align 8, !tbaa !3
  %19 = getelementptr inbounds nuw %struct.Curl_easy, ptr %18, i32 0, i32 16
  %20 = getelementptr inbounds nuw %struct.UserDefined, ptr %19, i32 0, i32 82
  %21 = load i32, ptr %20, align 8, !tbaa !85
  %22 = icmp eq i32 %21, 11
  br i1 %22, label %23, label %24

23:                                               ; preds = %3
  store i8 1, ptr %7, align 1, !tbaa !87
  br label %24

24:                                               ; preds = %23, %3
  %25 = load ptr, ptr %5, align 8, !tbaa !3
  %26 = load i32, ptr %6, align 4, !tbaa !84
  %27 = load i8, ptr %7, align 1, !tbaa !87, !range !123, !noundef !124
  %28 = trunc i8 %27 to i1
  %29 = call i32 @Curl_http_done(ptr noundef %25, i32 noundef %26, i1 noundef zeroext %28)
  store i32 %29, ptr %9, align 4, !tbaa !84
  %30 = load ptr, ptr %8, align 8, !tbaa !11
  %31 = icmp ne ptr %30, null
  br i1 %31, label %32, label %125

32:                                               ; preds = %24
  %33 = load i32, ptr %6, align 4, !tbaa !84
  %34 = icmp ne i32 %33, 0
  br i1 %34, label %125, label %35

35:                                               ; preds = %32
  %36 = load i32, ptr %9, align 4, !tbaa !84
  %37 = icmp ne i32 %36, 0
  br i1 %37, label %125, label %38

38:                                               ; preds = %35
  call void @llvm.lifetime.start.p0(i64 8, ptr %10) #5
  %39 = load ptr, ptr %8, align 8, !tbaa !11
  %40 = getelementptr inbounds nuw %struct.RTSP, ptr %39, i32 0, i32 0
  %41 = load i64, ptr %40, align 8, !tbaa !90
  store i64 %41, ptr %10, align 8, !tbaa !119
  call void @llvm.lifetime.start.p0(i64 8, ptr %11) #5
  %42 = load ptr, ptr %8, align 8, !tbaa !11
  %43 = getelementptr inbounds nuw %struct.RTSP, ptr %42, i32 0, i32 1
  %44 = load i64, ptr %43, align 8, !tbaa !92
  store i64 %44, ptr %11, align 8, !tbaa !119
  %45 = load ptr, ptr %5, align 8, !tbaa !3
  %46 = getelementptr inbounds nuw %struct.Curl_easy, ptr %45, i32 0, i32 16
  %47 = getelementptr inbounds nuw %struct.UserDefined, ptr %46, i32 0, i32 82
  %48 = load i32, ptr %47, align 8, !tbaa !85
  %49 = icmp ne i32 %48, 11
  br i1 %49, label %50, label %58

50:                                               ; preds = %38
  %51 = load i64, ptr %10, align 8, !tbaa !119
  %52 = load i64, ptr %11, align 8, !tbaa !119
  %53 = icmp ne i64 %51, %52
  br i1 %53, label %54, label %58

54:                                               ; preds = %50
  %55 = load ptr, ptr %5, align 8, !tbaa !3
  %56 = load i64, ptr %10, align 8, !tbaa !119
  %57 = load i64, ptr %11, align 8, !tbaa !119
  call void (ptr, ptr, ...) @Curl_failf(ptr noundef %55, ptr noundef @.str.7, i64 noundef %56, i64 noundef %57)
  store i32 85, ptr %4, align 4
  store i32 1, ptr %12, align 4
  br label %122

58:                                               ; preds = %50, %38
  %59 = load ptr, ptr %5, align 8, !tbaa !3
  %60 = getelementptr inbounds nuw %struct.Curl_easy, ptr %59, i32 0, i32 16
  %61 = getelementptr inbounds nuw %struct.UserDefined, ptr %60, i32 0, i32 82
  %62 = load i32, ptr %61, align 8, !tbaa !85
  %63 = icmp eq i32 %62, 11
  br i1 %63, label %64, label %105

64:                                               ; preds = %58
  %65 = load ptr, ptr %5, align 8, !tbaa !3
  %66 = getelementptr inbounds nuw %struct.Curl_easy, ptr %65, i32 0, i32 3
  %67 = load ptr, ptr %66, align 8, !tbaa !16
  %68 = getelementptr inbounds nuw %struct.connectdata, ptr %67, i32 0, i32 43
  %69 = getelementptr inbounds nuw %struct.rtsp_conn, ptr %68, i32 0, i32 1
  %70 = load i32, ptr %69, align 8, !tbaa !13
  %71 = icmp eq i32 %70, -1
  br i1 %71, label %72, label %105

72:                                               ; preds = %64
  br label %73

73:                                               ; preds = %72
  %74 = load ptr, ptr %5, align 8, !tbaa !3
  %75 = icmp ne ptr %74, null
  br i1 %75, label %76, label %102

76:                                               ; preds = %73
  %77 = load ptr, ptr %5, align 8, !tbaa !3
  %78 = getelementptr inbounds nuw %struct.Curl_easy, ptr %77, i32 0, i32 16
  %79 = getelementptr inbounds nuw %struct.UserDefined, ptr %78, i32 0, i32 119
  %80 = load i64, ptr %79, align 2
  %81 = lshr i64 %80, 31
  %82 = and i64 %81, 1
  %83 = trunc i64 %82 to i32
  %84 = icmp ne i32 %83, 0
  br i1 %84, label %85, label %102

85:                                               ; preds = %76
  %86 = load ptr, ptr %5, align 8, !tbaa !3
  %87 = getelementptr inbounds nuw %struct.Curl_easy, ptr %86, i32 0, i32 21
  %88 = getelementptr inbounds nuw %struct.UrlState, ptr %87, i32 0, i32 50
  %89 = load ptr, ptr %88, align 8, !tbaa !125
  %90 = icmp ne ptr %89, null
  br i1 %90, label %91, label %99

91:                                               ; preds = %85
  %92 = load ptr, ptr %5, align 8, !tbaa !3
  %93 = getelementptr inbounds nuw %struct.Curl_easy, ptr %92, i32 0, i32 21
  %94 = getelementptr inbounds nuw %struct.UrlState, ptr %93, i32 0, i32 50
  %95 = load ptr, ptr %94, align 8, !tbaa !125
  %96 = getelementptr inbounds nuw %struct.curl_trc_feat, ptr %95, i32 0, i32 1
  %97 = load i32, ptr %96, align 8, !tbaa !126
  %98 = icmp sge i32 %97, 1
  br i1 %98, label %99, label %102

99:                                               ; preds = %91, %85
  %100 = load ptr, ptr %5, align 8, !tbaa !3
  %101 = load i64, ptr %11, align 8, !tbaa !119
  call void (ptr, ptr, ...) @Curl_infof(ptr noundef %100, ptr noundef @.str.8, i64 noundef %101)
  br label %102

102:                                              ; preds = %99, %91, %76, %73
  br label %103

103:                                              ; preds = %102
  br label %104

104:                                              ; preds = %103
  br label %105

105:                                              ; preds = %104, %64, %58
  %106 = load ptr, ptr %5, align 8, !tbaa !3
  %107 = getelementptr inbounds nuw %struct.Curl_easy, ptr %106, i32 0, i32 16
  %108 = getelementptr inbounds nuw %struct.UserDefined, ptr %107, i32 0, i32 82
  %109 = load i32, ptr %108, align 8, !tbaa !85
  %110 = icmp eq i32 %109, 11
  br i1 %110, label %111, label %121

111:                                              ; preds = %105
  %112 = load ptr, ptr %5, align 8, !tbaa !3
  %113 = getelementptr inbounds nuw %struct.Curl_easy, ptr %112, i32 0, i32 15
  %114 = getelementptr inbounds nuw %struct.SingleRequest, ptr %113, i32 0, i32 26
  %115 = load i32, ptr %114, align 1
  %116 = lshr i32 %115, 4
  %117 = and i32 %116, 1
  %118 = icmp ne i32 %117, 0
  br i1 %118, label %119, label %121

119:                                              ; preds = %111
  %120 = load ptr, ptr %5, align 8, !tbaa !3
  call void (ptr, ptr, ...) @Curl_failf(ptr noundef %120, ptr noundef @.str.9)
  store i32 56, ptr %4, align 4
  store i32 1, ptr %12, align 4
  br label %122

121:                                              ; preds = %111, %105
  store i32 0, ptr %12, align 4
  br label %122

122:                                              ; preds = %121, %119, %54
  call void @llvm.lifetime.end.p0(i64 8, ptr %11) #5
  call void @llvm.lifetime.end.p0(i64 8, ptr %10) #5
  %123 = load i32, ptr %12, align 4
  switch i32 %123, label %127 [
    i32 0, label %124
  ]

124:                                              ; preds = %122
  br label %125

125:                                              ; preds = %124, %35, %32, %24
  %126 = load i32, ptr %9, align 4, !tbaa !84
  store i32 %126, ptr %4, align 4
  store i32 1, ptr %12, align 4
  br label %127

127:                                              ; preds = %125, %122
  call void @llvm.lifetime.end.p0(i64 4, ptr %9) #5
  call void @llvm.lifetime.end.p0(i64 8, ptr %8) #5
  %128 = load i32, ptr %4, align 4
  ret i32 %128
}