; Function Attrs: nounwind uwtable
define internal i32 @rtsp_done(ptr noundef %0, i32 noundef %1, i1 noundef zeroext %2) #0 {
  %4 = getelementptr inbounds nuw i8, ptr %0, i64 440
  %5 = load ptr, ptr %4, align 8, !tbaa !7
  %6 = getelementptr inbounds nuw i8, ptr %0, i64 2480
  %7 = load i32, ptr %6, align 8, !tbaa !77
  %8 = icmp eq i32 %7, 11
  %spec.select = or i1 %2, %8
  %9 = tail call i32 @Curl_http_done(ptr noundef %0, i32 noundef %1, i1 noundef zeroext %spec.select) #7
  %10 = icmp eq ptr %5, null
  %11 = icmp ne i32 %1, 0
  %or.cond = or i1 %11, %10
  %12 = icmp ne i32 %9, 0
  %or.cond3 = select i1 %or.cond, i1 true, i1 %12
  br i1 %or.cond3, label %.thread46, label %13

13:                                               ; preds = %3
  %14 = load i64, ptr %5, align 8, !tbaa !81
  %15 = getelementptr inbounds nuw i8, ptr %5, i64 8
  %16 = load i64, ptr %15, align 8, !tbaa !83
  %17 = load i32, ptr %6, align 8, !tbaa !77
  %.not = icmp eq i32 %17, 11
  %.not41 = icmp eq i64 %14, %16
  %or.cond45 = select i1 %.not, i1 true, i1 %.not41
  br i1 %or.cond45, label %19, label %18

18:                                               ; preds = %13
  tail call void (ptr, ptr, ...) @Curl_failf(ptr noundef nonnull %0, ptr noundef nonnull @.str.7, i64 noundef %14, i64 noundef %16) #7
  br label %.thread46

19:                                               ; preds = %13
  br i1 %.not, label %20, label %.thread46

20:                                               ; preds = %19
  %21 = getelementptr inbounds nuw i8, ptr %0, i64 24
  %22 = load ptr, ptr %21, align 8, !tbaa !8
  %23 = getelementptr inbounds nuw i8, ptr %22, i64 1120
  %24 = load i32, ptr %23, align 8, !tbaa !7
  %25 = icmp eq i32 %24, -1
  br i1 %25, label %26, label %.thread

26:                                               ; preds = %20
  %27 = getelementptr inbounds nuw i8, ptr %0, i64 2658
  %28 = load i64, ptr %27, align 2
  %29 = and i64 %28, 2147483648
  %.not42 = icmp eq i64 %29, 0
  br i1 %.not42, label %.thread, label %30

30:                                               ; preds = %26
  %31 = getelementptr inbounds nuw i8, ptr %0, i64 4864
  %32 = load ptr, ptr %31, align 8, !tbaa !114
  %.not43 = icmp eq ptr %32, null
  br i1 %.not43, label %37, label %33

33:                                               ; preds = %30
  %34 = getelementptr inbounds nuw i8, ptr %32, i64 8
  %35 = load i32, ptr %34, align 8, !tbaa !115
  %36 = icmp sgt i32 %35, 0
  br i1 %36, label %37, label %.thread

37:                                               ; preds = %30, %33
  tail call void (ptr, ptr, ...) @Curl_infof(ptr noundef nonnull %0, ptr noundef nonnull @.str.8, i64 noundef %16) #7
  %.pr.pre = load i32, ptr %6, align 8, !tbaa !77
  %38 = icmp eq i32 %.pr.pre, 11
  br i1 %38, label %.thread, label %.thread46

.thread:                                          ; preds = %20, %33, %26, %37
  %39 = getelementptr inbounds nuw i8, ptr %0, i64 457
  %40 = load i32, ptr %39, align 1
  %41 = and i32 %40, 16
  %.not44 = icmp eq i32 %41, 0
  br i1 %.not44, label %.thread46, label %42

42:                                               ; preds = %.thread
  tail call void (ptr, ptr, ...) @Curl_failf(ptr noundef nonnull %0, ptr noundef nonnull @.str.9) #7
  br label %.thread46

.thread46:                                        ; preds = %19, %37, %.thread, %3, %18, %42
  %.1 = phi i32 [ 85, %18 ], [ 56, %42 ], [ %9, %3 ], [ 0, %.thread ], [ 0, %37 ], [ 0, %19 ]
  ret i32 %.1
}